(dp0
S'\n'
p1
I0
sS' '
p2
I1
sS"'"
p3
I2
sS','
p4
I3
sS'.'
p5
I4
sS';'
p6
I5
sS'A'
p7
I6
sS'C'
p8
I8
sS'B'
p9
I7
sS'E'
p10
I9
sS'F'
p11
I10
sS'H'
p12
I11
sS'S'
p13
I12
sS'T'
p14
I13
sS'W'
p15
I14
sS'a'
p16
I15
sS'c'
p17
I17
sS'b'
p18
I16
sS'e'
p19
I19
sS'd'
p20
I18
sS'g'
p21
I21
sS'f'
p22
I20
sS'i'
p23
I23
sS'h'
p24
I22
sS'k'
p25
I24
sS'm'
p26
I26
sS'l'
p27
I25
sS'o'
p28
I28
sS'n'
p29
I27
sS'q'
p30
I30
sS'p'
p31
I29
sS's'
p32
I32
sS'r'
p33
I31
sS'u'
p34
I34
sS't'
p35
I33
sS'w'
p36
I35
sS'y'
p37
I37
sS'x'
p38
I36
s.